(dp0
VCellular Processes
p1
Vc_p
p2
sVHuman Diseases
p3
Vh_d
p4
sVGenetic Information Processing
p5
Vg_i_p
p6
sVEnvironmental Information Processing
p7
Ve_i_p
p8
sVOrganismal Systems
p9
Vo_s
p10
sVMetabolism
p11
Vm
p12
s.